; Function Attrs: nounwind sspstrong uwtable
define internal i64 @strscan_scan_base10_integer(i64 noundef %0) #0 {
  %2 = tail call ptr @rb_check_typeddata(i64 noundef %0, ptr noundef nonnull @strscanner_type) #12
  %3 = getelementptr inbounds nuw i8, ptr %2, i64 8
  %4 = load i64, ptr %3, align 8, !tbaa !23
  %5 = icmp eq i64 %4, 4
  br i1 %5, label %6, label %8

6:                                                ; preds = %1
  %7 = load i64, ptr @rb_eArgError, align 8, !tbaa !10
  tail call void (i64, ptr, ...) @rb_raise(i64 noundef %7, ptr noundef nonnull @.str.66) #14
  unreachable

8:                                                ; preds = %1
  %9 = load i64, ptr %2, align 8, !tbaa !18
  %10 = and i64 %9, -2
  store i64 %10, ptr %2, align 8, !tbaa !18
  %11 = inttoptr i64 %4 to ptr
  %12 = load i64, ptr %11, align 8, !tbaa !34
  %13 = trunc i64 %12 to i32
  %14 = lshr i32 %13, 22
  %15 = and i32 %14, 127
  %16 = load i32, ptr @utf8_encindex, align 4, !tbaa !6
  %17 = icmp eq i32 %15, %16
  %18 = load i32, ptr @binary_encindex, align 4
  %19 = icmp eq i32 %15, %18
  %or.cond.i.i = select i1 %17, i1 true, i1 %19
  %20 = load i32, ptr @usascii_encindex, align 4
  %21 = icmp eq i32 %15, %20
  %or.cond.i = select i1 %or.cond.i.i, i1 true, i1 %21
  br i1 %or.cond.i, label %strscan_must_ascii_compat.exit, label %22, !prof !61

22:                                               ; preds = %8
  tail call void @rb_must_asciicompat(i64 noundef %4) #12
  %.pre = load i64, ptr %3, align 8, !tbaa !23
  %.phi.trans.insert = inttoptr i64 %.pre to ptr
  %.pre32 = load i64, ptr %.phi.trans.insert, align 8, !tbaa !34, !noalias !62
  br label %strscan_must_ascii_compat.exit

strscan_must_ascii_compat.exit:                   ; preds = %8, %22
  %.pre-phi = phi ptr [ %11, %8 ], [ %.phi.trans.insert, %22 ]
  %23 = phi i64 [ %12, %8 ], [ %.pre32, %22 ]
  %24 = and i64 %23, 8192
  %.not.i.i = icmp eq i64 %24, 0
  %25 = getelementptr inbounds nuw i8, ptr %.pre-phi, i64 24
  br i1 %.not.i.i, label %RSTRING_PTR.exit, label %26

26:                                               ; preds = %strscan_must_ascii_compat.exit
  %.sroa.2.0.copyload.i = load ptr, ptr %25, align 8
  br label %RSTRING_PTR.exit

RSTRING_PTR.exit:                                 ; preds = %strscan_must_ascii_compat.exit, %26
  %.sroa.2.0.i = phi ptr [ %.sroa.2.0.copyload.i, %26 ], [ %25, %strscan_must_ascii_compat.exit ]
  %27 = getelementptr inbounds nuw i8, ptr %2, i64 24
  %28 = load i64, ptr %27, align 8, !tbaa !29
  %29 = getelementptr inbounds i8, ptr %.sroa.2.0.i, i64 %28
  %30 = getelementptr inbounds nuw i8, ptr %.pre-phi, i64 16
  %31 = load i64, ptr %30, align 8, !tbaa !32
  %32 = sub nsw i64 %31, %28
  %33 = icmp slt i64 %32, 1
  br i1 %33, label %55, label %34

34:                                               ; preds = %RSTRING_PTR.exit
  %35 = load i8, ptr %29, align 1, !tbaa !54
  %36 = add i8 %35, -43
  %switch.and = and i8 %36, -3
  %switch.selectcmp = icmp eq i8 %switch.and, 0
  %37 = zext i1 %switch.selectcmp to i64
  %38 = getelementptr inbounds nuw i8, ptr %29, i64 %37
  %39 = load i8, ptr %38, align 1, !tbaa !54
  %40 = sext i8 %39 to i32
  %41 = add nsw i32 %40, -58
  %42 = icmp ult i32 %41, -10
  br i1 %42, label %55, label %43

43:                                               ; preds = %34
  %44 = getelementptr inbounds nuw i8, ptr %2, i64 16
  store i64 %28, ptr %44, align 8, !tbaa !28
  %45 = icmp samesign ugt i64 %32, %37
  br i1 %45, label %.lr.ph, label %.critedge

.lr.ph:                                           ; preds = %43, %51
  %.129 = phi i64 [ %52, %51 ], [ %37, %43 ]
  %46 = getelementptr inbounds nuw i8, ptr %29, i64 %.129
  %47 = load i8, ptr %46, align 1, !tbaa !54
  %48 = sext i8 %47 to i32
  %49 = add nsw i32 %48, -58
  %50 = icmp ult i32 %49, -10
  br i1 %50, label %.critedge, label %51

51:                                               ; preds = %.lr.ph
  %52 = add nuw nsw i64 %.129, 1
  %53 = icmp slt i64 %52, %32
  br i1 %53, label %.lr.ph, label %.critedge, !llvm.loop !65

.critedge:                                        ; preds = %.lr.ph, %51, %43
  %.1.lcssa = phi i64 [ 1, %43 ], [ %32, %51 ], [ %.129, %.lr.ph ]
  %54 = tail call fastcc i64 @strscan_parse_integer(ptr noundef nonnull %2, i32 noundef 10, i64 noundef %.1.lcssa)
  br label %55

55:                                               ; preds = %34, %RSTRING_PTR.exit, %.critedge
  %.0 = phi i64 [ %54, %.critedge ], [ 4, %RSTRING_PTR.exit ], [ 4, %34 ]
  ret i64 %.0
}